; Function Attrs: mustprogress uwtable
define noundef zeroext i1 @_ZNK6casadi2MX12is_transposeEv(ptr noundef nonnull align 8 dereferenceable(8) %0) local_unnamed_addr #3 align 2 {
  %2 = tail call noundef ptr @_ZNK6casadi12SharedObjectptEv(ptr noundef nonnull align 8 dereferenceable(8) %0)
  %3 = load ptr, ptr %2, align 8
  %4 = getelementptr inbounds i8, ptr %3, i64 296
  %5 = load ptr, ptr %4, align 8
  %6 = tail call noundef i64 %5(ptr noundef nonnull align 8 dereferenceable(64) %2)
  %7 = icmp eq i64 %6, 54
  ret i1 %7
}